target datalayout = "e-m:e-p270:32:32-p271:32:32-p272:64:64-i64:64-i128:128-f80:128-n8:16:32:64-S128"
target triple = "x86_64-unknown-linux-gnu"

%struct.QObject = type { %struct.QObjectBase_ }
%struct.QObjectBase_ = type { i32, i64 }

; Function Attrs: nounwind sspstrong uwtable
define internal void @qobject_ref_impl(ptr noundef %obj) #0 {
entry:
  %obj.addr = alloca ptr, align 8
  store ptr %obj, ptr %obj.addr, align 8
  %0 = load ptr, ptr %obj.addr, align 8
  %tobool = icmp ne ptr %0, null
  br i1 %tobool, label %if.then, label %if.end

if.then:                                          ; preds = %entry
  %1 = load ptr, ptr %obj.addr, align 8
  %base = getelementptr inbounds %struct.QObject, ptr %1, i32 0, i32 0
  %refcnt = getelementptr inbounds %struct.QObjectBase_, ptr %base, i32 0, i32 1
  %2 = load i64, ptr %refcnt, align 8
  %inc = add i64 %2, 1
  store i64 %inc, ptr %refcnt, align 8
  br label %if.end

if.end:                                           ; preds = %if.then, %entry
  ret void
}

; Function Attrs: nounwind sspstrong uwtable
define dso_local void @qdict_copy_default(ptr noundef %dst, ptr noundef %src, ptr noundef %key) #0 {
entry:
  %dst.addr = alloca ptr, align 8
  %src.addr = alloca ptr, align 8
  %key.addr = alloca ptr, align 8
  %val = alloca ptr, align 8
  %_o = alloca ptr, align 8
  %_obj0 = alloca ptr, align 8
  %tmp = alloca ptr, align 8
  %__mptr = alloca ptr, align 8
  %tmp5 = alloca ptr, align 8
  %tmp6 = alloca ptr, align 8
  store ptr %dst, ptr %dst.addr, align 8
  store ptr %src, ptr %src.addr, align 8
  store ptr %key, ptr %key.addr, align 8
  %0 = load ptr, ptr %dst.addr, align 8
  %1 = load ptr, ptr %key.addr, align 8
  %call = call i32 @qdict_haskey(ptr noundef %0, ptr noundef %1)
  %tobool = icmp ne i32 %call, 0
  br i1 %tobool, label %if.then, label %if.end

if.then:                                          ; preds = %entry
  br label %if.end7

if.end:                                           ; preds = %entry
  %2 = load ptr, ptr %src.addr, align 8
  %3 = load ptr, ptr %key.addr, align 8
  %call1 = call ptr @qdict_get(ptr noundef %2, ptr noundef %3)
  store ptr %call1, ptr %val, align 8
  %4 = load ptr, ptr %val, align 8
  %tobool2 = icmp ne ptr %4, null
  br i1 %tobool2, label %if.then3, label %if.end7

if.then3:                                         ; preds = %if.end
  %5 = load ptr, ptr %dst.addr, align 8
  %6 = load ptr, ptr %key.addr, align 8
  %7 = load ptr, ptr %val, align 8
  store ptr %7, ptr %_o, align 8
  %8 = load ptr, ptr %_o, align 8
  store ptr %8, ptr %_obj0, align 8
  %9 = load ptr, ptr %_obj0, align 8
  %tobool4 = icmp ne ptr %9, null
  br i1 %tobool4, label %cond.true, label %cond.false

cond.true:                                        ; preds = %if.then3
  %10 = load ptr, ptr %_obj0, align 8
  %base = getelementptr inbounds %struct.QObject, ptr %10, i32 0, i32 0
  store ptr %base, ptr %__mptr, align 8
  %11 = load ptr, ptr %__mptr, align 8
  %add.ptr = getelementptr i8, ptr %11, i64 0
  store ptr %add.ptr, ptr %tmp5, align 8
  %12 = load ptr, ptr %tmp5, align 8
  br label %cond.end

cond.false:                                       ; preds = %if.then3
  br label %cond.end

cond.end:                                         ; preds = %cond.false, %cond.true
  %cond = phi ptr [ %12, %cond.true ], [ null, %cond.false ]
  store ptr %cond, ptr %tmp, align 8
  %13 = load ptr, ptr %tmp, align 8
  call void @qobject_ref_impl(ptr noundef %13)
  %14 = load ptr, ptr %_o, align 8
  store ptr %14, ptr %tmp6, align 8
  %15 = load ptr, ptr %tmp6, align 8
  call void @qdict_put_obj(ptr noundef %5, ptr noundef %6, ptr noundef %15)
  br label %if.end7

if.end7:                                          ; preds = %cond.end, %if.end, %if.then
  ret void
}