; Function Attrs: nounwind sspstrong uwtable
define dso_local void @qdict_copy_default(ptr noundef %dst, ptr noundef %src, ptr noundef %key) local_unnamed_addr #0 {
entry:
  %call = tail call i32 @qdict_haskey(ptr noundef %dst, ptr noundef %key) #7
  %tobool.not = icmp eq i32 %call, 0
  br i1 %tobool.not, label %if.end, label %if.end7

if.end:                                           ; preds = %entry
  %call1 = tail call ptr @qdict_get(ptr noundef %src, ptr noundef %key) #7
  %tobool2.not = icmp eq ptr %call1, null
  br i1 %tobool2.not, label %if.end7, label %qobject_ref_impl.exit

qobject_ref_impl.exit:                            ; preds = %if.end
  %refcnt.i = getelementptr inbounds nuw i8, ptr %call1, i64 8
  %0 = load i64, ptr %refcnt.i, align 8
  %inc.i = add i64 %0, 1
  store i64 %inc.i, ptr %refcnt.i, align 8
  tail call void @qdict_put_obj(ptr noundef %dst, ptr noundef %key, ptr noundef nonnull %call1) #7
  br label %if.end7

if.end7:                                          ; preds = %entry, %qobject_ref_impl.exit, %if.end
  ret void
}